; Function Attrs: nounwind uwtable
define hidden ptr @lexbor_str_length_set_noi(ptr nocapture noundef %0, ptr noundef %1, i64 noundef %2) local_unnamed_addr #0 {
  %.val.i = load ptr, ptr %0, align 8
  %4 = getelementptr i8, ptr %.val.i, i64 -8
  %.val.val.i = load i64, ptr %4, align 8
  %.not.i = icmp ugt i64 %.val.val.i, %2
  br i1 %.not.i, label %9, label %5

5:                                                ; preds = %3
  %6 = add i64 %2, 1
  %7 = tail call ptr @lexbor_mraw_realloc(ptr noundef %1, ptr noundef nonnull %.val.i, i64 noundef %6) #15
  %8 = icmp eq ptr %7, null
  br i1 %8, label %lexbor_str_length_set.exit, label %lexbor_str_realloc.exit.i

lexbor_str_realloc.exit.i:                        ; preds = %5
  store ptr %7, ptr %0, align 8
  br label %9

9:                                                ; preds = %lexbor_str_realloc.exit.i, %3
  %10 = phi ptr [ %7, %lexbor_str_realloc.exit.i ], [ %.val.i, %3 ]
  %11 = getelementptr inbounds i8, ptr %0, i64 8
  store i64 %2, ptr %11, align 8
  %12 = getelementptr inbounds i8, ptr %10, i64 %2
  store i8 0, ptr %12, align 1
  %13 = load ptr, ptr %0, align 8
  br label %lexbor_str_length_set.exit

lexbor_str_length_set.exit:                       ; preds = %5, %9
  %.0.i = phi ptr [ %13, %9 ], [ null, %5 ]
  ret ptr %.0.i
}